target datalayout = "e-m:e-p270:32:32-p271:32:32-p272:64:64-i64:64-i128:128-f80:128-n8:16:32:64-S128"
target triple = "x86_64-pc-linux-gnu"

%struct._packet_info = type { ptr, ptr, i32, i32, %struct.nstime_t, %struct.nstime_t, %struct.nstime_t, i8, ptr, ptr, ptr, ptr, %struct._address, %struct._address, %struct._address, %struct._address, %struct._address, %struct._address, i32, ptr, i8, [3 x i8], %struct.anon, i32, i32, i32, i32, ptr, i8, ptr, ptr, i16, i16, i32, i32, i16, i32, i32, ptr, ptr, ptr, i8, i8, i16, i16, i16, i32, i16, i16, ptr, ptr, ptr, ptr, ptr, i32, i32 }
%struct.nstime_t = type { i64, i32 }
%struct._address = type { i32, i32, ptr, ptr }
%struct.anon = type { i8, [3 x i8] }
%struct._frame_data = type <{ i32, i32, i32, i32, i32, [4 x i8], i64, ptr, ptr, ptr, i8, i16, [5 x i8], %struct.nstime_t, %struct.nstime_t, i32, i32 }>

@proto_tftp = internal global i32 0, align 4
@tftp_handle = internal global ptr null, align 8

; Function Attrs: null_pointer_is_valid sspstrong uwtable
define internal ptr @create_tftp_conversation(ptr noundef %0) #0 {
  %2 = alloca ptr, align 8
  %3 = alloca ptr, align 8
  store ptr %0, ptr %2, align 8
  call void @llvm.lifetime.start.p0(i64 8, ptr %3) #12
  store ptr null, ptr %3, align 8
  %4 = load ptr, ptr %2, align 8
  %5 = getelementptr inbounds nuw %struct._packet_info, ptr %4, i32 0, i32 8
  %6 = load ptr, ptr %5, align 8
  %7 = getelementptr inbounds nuw %struct._frame_data, ptr %6, i32 0, i32 11
  %8 = load i16, ptr %7, align 1
  %9 = lshr i16 %8, 3
  %10 = and i16 %9, 1
  %11 = zext i16 %10 to i32
  %12 = icmp ne i32 %11, 0
  br i1 %12, label %31, label %13

13:                                               ; preds = %1
  %14 = load ptr, ptr %2, align 8
  %15 = getelementptr inbounds nuw %struct._packet_info, ptr %14, i32 0, i32 3
  %16 = load i32, ptr %15, align 4
  %17 = load ptr, ptr %2, align 8
  %18 = getelementptr inbounds nuw %struct._packet_info, ptr %17, i32 0, i32 16
  %19 = load ptr, ptr %2, align 8
  %20 = getelementptr inbounds nuw %struct._packet_info, ptr %19, i32 0, i32 17
  %21 = load ptr, ptr %2, align 8
  %22 = getelementptr inbounds nuw %struct._packet_info, ptr %21, i32 0, i32 24
  %23 = load i32, ptr %22, align 4
  %24 = call ptr @conversation_new(i32 noundef %16, ptr noundef %18, ptr noundef %20, i32 noundef 3, i32 noundef %23, i32 noundef 0, i32 noundef 2)
  store ptr %24, ptr %3, align 8
  %25 = load ptr, ptr %3, align 8
  %26 = load ptr, ptr @tftp_handle, align 8
  call void @conversation_set_dissector(ptr noundef %25, ptr noundef %26)
  %27 = call ptr @wmem_file_scope()
  %28 = load ptr, ptr %2, align 8
  %29 = load i32, ptr @proto_tftp, align 4
  %30 = load ptr, ptr %3, align 8
  call void @p_add_proto_data(ptr noundef %27, ptr noundef %28, i32 noundef %29, i32 noundef 2, ptr noundef %30)
  br label %36

31:                                               ; preds = %1
  %32 = call ptr @wmem_file_scope()
  %33 = load ptr, ptr %2, align 8
  %34 = load i32, ptr @proto_tftp, align 4
  %35 = call ptr @p_get_proto_data(ptr noundef %32, ptr noundef %33, i32 noundef %34, i32 noundef 2)
  store ptr %35, ptr %3, align 8
  br label %36

36:                                               ; preds = %31, %13
  %37 = load ptr, ptr %3, align 8
  call void @llvm.lifetime.end.p0(i64 8, ptr %3) #12
  ret ptr %37
}