; Function Attrs: null_pointer_is_valid sspstrong uwtable
define internal fastcc ptr @create_tftp_conversation(ptr noundef %0) unnamed_addr #0 {
  %2 = getelementptr inbounds nuw i8, ptr %0, i64 80
  %3 = load ptr, ptr %2, align 8
  %4 = getelementptr inbounds nuw i8, ptr %3, i64 57
  %5 = load i16, ptr %4, align 1
  %6 = and i16 %5, 8
  %.not = icmp eq i16 %6, 0
  br i1 %.not, label %7, label %18

7:                                                ; preds = %1
  %8 = getelementptr inbounds nuw i8, ptr %0, i64 20
  %9 = load i32, ptr %8, align 4
  %10 = getelementptr inbounds nuw i8, ptr %0, i64 208
  %11 = getelementptr inbounds nuw i8, ptr %0, i64 232
  %12 = getelementptr inbounds nuw i8, ptr %0, i64 284
  %13 = load i32, ptr %12, align 4
  %14 = tail call ptr @conversation_new(i32 noundef %9, ptr noundef nonnull %10, ptr noundef nonnull %11, i32 noundef 3, i32 noundef %13, i32 noundef 0, i32 noundef 2)
  %15 = load ptr, ptr @tftp_handle, align 8
  tail call void @conversation_set_dissector(ptr noundef %14, ptr noundef %15)
  %16 = tail call ptr @wmem_file_scope()
  %17 = load i32, ptr @proto_tftp, align 4
  tail call void @p_add_proto_data(ptr noundef %16, ptr noundef %0, i32 noundef %17, i32 noundef 2, ptr noundef %14)
  br label %22

18:                                               ; preds = %1
  %19 = tail call ptr @wmem_file_scope()
  %20 = load i32, ptr @proto_tftp, align 4
  %21 = tail call ptr @p_get_proto_data(ptr noundef %19, ptr noundef %0, i32 noundef %20, i32 noundef 2)
  br label %22

22:                                               ; preds = %18, %7
  %.0 = phi ptr [ %21, %18 ], [ %14, %7 ]
  ret ptr %.0
}